target datalayout = "e-m:e-p270:32:32-p271:32:32-p272:64:64-i64:64-i128:128-f80:128-n8:16:32:64-S128"
target triple = "x86_64-pc-linux-gnu"

%struct.z_stream_s = type { ptr, i32, i64, ptr, i32, i64, ptr, ptr, ptr, ptr, ptr, i32, i64, i64 }
%struct.internal_state = type { ptr, i32, ptr, i64, ptr, i32, i32, ptr, i32, i8, i32, i32, i32, i32, ptr, i64, ptr, ptr, i32, i32, i32, i32, i32, i64, i32, i32, i32, i32, i32, i32, i32, i32, i32, i32, i32, i32, i32, [573 x %struct.ct_data_s], [61 x %struct.ct_data_s], [39 x %struct.ct_data_s], %struct.tree_desc_s, %struct.tree_desc_s, %struct.tree_desc_s, [16 x i16], [573 x i32], i32, i32, [573 x i8], ptr, i32, i32, ptr, i64, i64, i32, i32, i16, i32, i64 }
%struct.ct_data_s = type { %union.anon, %union.anon.0 }
%union.anon = type { i16 }
%union.anon.0 = type { i16 }
%struct.tree_desc_s = type { ptr, i32, ptr }

; Function Attrs: nounwind uwtable
define i32 @deflateTune(ptr noundef %0, i32 noundef %1, i32 noundef %2, i32 noundef %3, i32 noundef %4) #0 {
  %6 = alloca i32, align 4
  %7 = alloca ptr, align 8
  %8 = alloca i32, align 4
  %9 = alloca i32, align 4
  %10 = alloca i32, align 4
  %11 = alloca i32, align 4
  %12 = alloca ptr, align 8
  %13 = alloca i32, align 4
  store ptr %0, ptr %7, align 8, !tbaa !3
  store i32 %1, ptr %8, align 4, !tbaa !8
  store i32 %2, ptr %9, align 4, !tbaa !8
  store i32 %3, ptr %10, align 4, !tbaa !8
  store i32 %4, ptr %11, align 4, !tbaa !8
  call void @llvm.lifetime.start.p0(i64 8, ptr %12) #5
  %14 = load ptr, ptr %7, align 8, !tbaa !3
  %15 = icmp eq ptr %14, null
  br i1 %15, label %21, label %16

16:                                               ; preds = %5
  %17 = load ptr, ptr %7, align 8, !tbaa !3
  %18 = getelementptr inbounds nuw %struct.z_stream_s, ptr %17, i32 0, i32 7
  %19 = load ptr, ptr %18, align 8, !tbaa !21
  %20 = icmp eq ptr %19, null
  br i1 %20, label %21, label %22

21:                                               ; preds = %16, %5
  store i32 -2, ptr %6, align 4
  store i32 1, ptr %13, align 4
  br label %38

22:                                               ; preds = %16
  %23 = load ptr, ptr %7, align 8, !tbaa !3
  %24 = getelementptr inbounds nuw %struct.z_stream_s, ptr %23, i32 0, i32 7
  %25 = load ptr, ptr %24, align 8, !tbaa !21
  store ptr %25, ptr %12, align 8, !tbaa !20
  %26 = load i32, ptr %8, align 4, !tbaa !8
  %27 = load ptr, ptr %12, align 8, !tbaa !20
  %28 = getelementptr inbounds nuw %struct.internal_state, ptr %27, i32 0, i32 35
  store i32 %26, ptr %28, align 4, !tbaa !85
  %29 = load i32, ptr %9, align 4, !tbaa !8
  %30 = load ptr, ptr %12, align 8, !tbaa !20
  %31 = getelementptr inbounds nuw %struct.internal_state, ptr %30, i32 0, i32 32
  store i32 %29, ptr %31, align 8, !tbaa !83
  %32 = load i32, ptr %10, align 4, !tbaa !8
  %33 = load ptr, ptr %12, align 8, !tbaa !20
  %34 = getelementptr inbounds nuw %struct.internal_state, ptr %33, i32 0, i32 36
  store i32 %32, ptr %34, align 8, !tbaa !87
  %35 = load i32, ptr %11, align 4, !tbaa !8
  %36 = load ptr, ptr %12, align 8, !tbaa !20
  %37 = getelementptr inbounds nuw %struct.internal_state, ptr %36, i32 0, i32 31
  store i32 %35, ptr %37, align 4, !tbaa !89
  store i32 0, ptr %6, align 4
  store i32 1, ptr %13, align 4
  br label %38

38:                                               ; preds = %22, %21
  call void @llvm.lifetime.end.p0(i64 8, ptr %12) #5
  %39 = load i32, ptr %6, align 4
  ret i32 %39
}