; Function Attrs: mustprogress nofree norecurse nosync nounwind willreturn memory(write, argmem: readwrite, inaccessiblemem: none) uwtable
define range(i32 -2, 1) i32 @deflateTune(ptr noundef readonly %0, i32 noundef %1, i32 noundef %2, i32 noundef %3, i32 noundef %4) local_unnamed_addr #5 {
  %6 = icmp eq ptr %0, null
  br i1 %6, label %16, label %7

7:                                                ; preds = %5
  %8 = getelementptr inbounds nuw i8, ptr %0, i64 56
  %9 = load ptr, ptr %8, align 8, !tbaa !16
  %10 = icmp eq ptr %9, null
  br i1 %10, label %16, label %11

11:                                               ; preds = %7
  %12 = getelementptr inbounds nuw i8, ptr %9, i64 188
  store i32 %1, ptr %12, align 4, !tbaa !61
  %13 = getelementptr inbounds nuw i8, ptr %9, i64 176
  store i32 %2, ptr %13, align 8, !tbaa !59
  %14 = getelementptr inbounds nuw i8, ptr %9, i64 192
  store i32 %3, ptr %14, align 8, !tbaa !63
  %15 = getelementptr inbounds nuw i8, ptr %9, i64 172
  store i32 %4, ptr %15, align 4, !tbaa !65
  br label %16

16:                                               ; preds = %5, %7, %11
  %.0 = phi i32 [ 0, %11 ], [ -2, %7 ], [ -2, %5 ]
  ret i32 %.0
}